(dp0
S'037159939'
p1
(lp2
S'Lydia'
p3
aI72000
aI72000
asS'037195535'
p4
(lp5
S'Nolan'
p6
aI12000
aI12000
as.(dp0
S'037159939'
p1
(lp2
S'Alipay'
p3
aI72000
aI72000
asS'037195535'
p4
(lp5
S'Nolan'
p6
aI12000
aI12000
as.